target datalayout = "e-m:e-p270:32:32-p271:32:32-p272:64:64-i64:64-i128:128-f80:128-n8:16:32:64-S128"
target triple = "x86_64-pc-linux-gnu"

@proto_register_fcfcs.ett = internal global [1 x ptr] [ptr @ett_fcfcs], align 8
@.str.83 = private unnamed_addr constant [31 x i8] c"FC Fabric Configuration Server\00", align 1
@.str.84 = private unnamed_addr constant [7 x i8] c"FC-FCS\00", align 1
@.str.85 = private unnamed_addr constant [4 x i8] c"fcs\00", align 1
@proto_fcfcs = internal global i32 0, align 4
@fcfcs_req_hash = internal global ptr null, align 8
@fcs_handle = internal global ptr null, align 8

; Function Attrs: nounwind uwtable
define hidden void @proto_register_fcfcs() #0 {
  %1 = alloca ptr, align 8
  %2 = call i32 @proto_register_protocol(ptr noundef @.str.83, ptr noundef @.str.84, ptr noundef @.str.85)
  store i32 %2, ptr @proto_fcfcs, align 4
  %3 = load i32, ptr @proto_fcfcs, align 4
  call void @proto_register_field_array(i32 noundef %3, ptr noundef @proto_register_fcfcs.hf, i32 noundef 41)
  call void @proto_register_subtree_array(ptr noundef @proto_register_fcfcs.ett, i32 noundef 1)
  %4 = load i32, ptr @proto_fcfcs, align 4
  %5 = call ptr @expert_register_protocol(i32 noundef %4)
  store ptr %5, ptr %1, align 8
  %6 = load ptr, ptr %1, align 8
  call void @expert_register_field_array(ptr noundef %6, ptr noundef @proto_register_fcfcs.ei, i32 noundef 1)
  %7 = call ptr @wmem_epan_scope()
  %8 = call ptr @wmem_file_scope()
  %9 = call noalias ptr @wmem_map_new_autoreset(ptr noundef %7, ptr noundef %8, ptr noundef @fcfcs_hash, ptr noundef @fcfcs_equal)
  store ptr %9, ptr @fcfcs_req_hash, align 8
  %10 = load i32, ptr @proto_fcfcs, align 4
  %11 = call ptr @register_dissector(ptr noundef @.str.85, ptr noundef @dissect_fcfcs, i32 noundef %10)
  store ptr %11, ptr @fcs_handle, align 8
  ret void
}