; Function Attrs: nounwind uwtable
define hidden void @proto_register_fcfcs() local_unnamed_addr #0 {
  %1 = tail call i32 @proto_register_protocol(ptr noundef nonnull @.str.83, ptr noundef nonnull @.str.84, ptr noundef nonnull @.str.85) #4
  store i32 %1, ptr @proto_fcfcs, align 4
  tail call void @proto_register_field_array(i32 noundef %1, ptr noundef nonnull @proto_register_fcfcs.hf, i32 noundef 41) #4
  tail call void @proto_register_subtree_array(ptr noundef nonnull @proto_register_fcfcs.ett, i32 noundef 1) #4
  %2 = load i32, ptr @proto_fcfcs, align 4
  %3 = tail call ptr @expert_register_protocol(i32 noundef %2) #4
  tail call void @expert_register_field_array(ptr noundef %3, ptr noundef nonnull @proto_register_fcfcs.ei, i32 noundef 1) #4
  %4 = tail call ptr @wmem_epan_scope() #4
  %5 = tail call ptr @wmem_file_scope() #4
  %6 = tail call noalias ptr @wmem_map_new_autoreset(ptr noundef %4, ptr noundef %5, ptr noundef nonnull @fcfcs_hash, ptr noundef nonnull @fcfcs_equal) #4
  store ptr %6, ptr @fcfcs_req_hash, align 8
  %7 = load i32, ptr @proto_fcfcs, align 4
  %8 = tail call ptr @register_dissector(ptr noundef nonnull @.str.85, ptr noundef nonnull @dissect_fcfcs, i32 noundef %7) #4
  store ptr %8, ptr @fcs_handle, align 8
  ret void
}